target datalayout = "e-m:e-p270:32:32-p271:32:32-p272:64:64-i64:64-i128:128-f80:128-n8:16:32:64-S128"
target triple = "x86_64-pc-linux-gnu"

%struct._object = type { %union.anon, ptr }
%union.anon = type { i64 }
%struct.PyAsyncGenAThrow = type { %struct._object, ptr, ptr, i32 }

; Function Attrs: nounwind uwtable
define internal i32 @async_gen_athrow_traverse(ptr noundef %0, ptr noundef %1, ptr noundef %2) #0 {
  %4 = alloca i32, align 4
  %5 = alloca ptr, align 8
  %6 = alloca ptr, align 8
  %7 = alloca ptr, align 8
  %8 = alloca ptr, align 8
  %9 = alloca i32, align 4
  %10 = alloca i32, align 4
  %11 = alloca i32, align 4
  store ptr %0, ptr %5, align 8, !tbaa !11
  store ptr %1, ptr %6, align 8, !tbaa !50
  store ptr %2, ptr %7, align 8, !tbaa !50
  call void @llvm.lifetime.start.p0(i64 8, ptr %8) #7
  %12 = load ptr, ptr %5, align 8, !tbaa !11
  store ptr %12, ptr %8, align 8, !tbaa !189
  br label %13

13:                                               ; preds = %3
  %14 = load ptr, ptr %8, align 8, !tbaa !189
  %15 = getelementptr inbounds nuw %struct.PyAsyncGenAThrow, ptr %14, i32 0, i32 1
  %16 = load ptr, ptr %15, align 8, !tbaa !191
  %17 = icmp ne ptr %16, null
  br i1 %17, label %18, label %33

18:                                               ; preds = %13
  call void @llvm.lifetime.start.p0(i64 4, ptr %9) #7
  %19 = load ptr, ptr %6, align 8, !tbaa !50
  %20 = load ptr, ptr %8, align 8, !tbaa !189
  %21 = getelementptr inbounds nuw %struct.PyAsyncGenAThrow, ptr %20, i32 0, i32 1
  %22 = load ptr, ptr %21, align 8, !tbaa !191
  %23 = load ptr, ptr %7, align 8, !tbaa !50
  %24 = call i32 %19(ptr noundef %22, ptr noundef %23)
  store i32 %24, ptr %9, align 4, !tbaa !14
  %25 = load i32, ptr %9, align 4, !tbaa !14
  %26 = icmp ne i32 %25, 0
  br i1 %26, label %27, label %29

27:                                               ; preds = %18
  %28 = load i32, ptr %9, align 4, !tbaa !14
  store i32 %28, ptr %4, align 4
  store i32 1, ptr %10, align 4
  br label %30

29:                                               ; preds = %18
  store i32 0, ptr %10, align 4
  br label %30

30:                                               ; preds = %29, %27
  call void @llvm.lifetime.end.p0(i64 4, ptr %9) #7
  %31 = load i32, ptr %10, align 4
  switch i32 %31, label %59 [
    i32 0, label %32
  ]

32:                                               ; preds = %30
  br label %33

33:                                               ; preds = %32, %13
  br label %34

34:                                               ; preds = %33
  br label %35

35:                                               ; preds = %34
  br label %36

36:                                               ; preds = %35
  %37 = load ptr, ptr %8, align 8, !tbaa !189
  %38 = getelementptr inbounds nuw %struct.PyAsyncGenAThrow, ptr %37, i32 0, i32 2
  %39 = load ptr, ptr %38, align 8, !tbaa !193
  %40 = icmp ne ptr %39, null
  br i1 %40, label %41, label %56

41:                                               ; preds = %36
  call void @llvm.lifetime.start.p0(i64 4, ptr %11) #7
  %42 = load ptr, ptr %6, align 8, !tbaa !50
  %43 = load ptr, ptr %8, align 8, !tbaa !189
  %44 = getelementptr inbounds nuw %struct.PyAsyncGenAThrow, ptr %43, i32 0, i32 2
  %45 = load ptr, ptr %44, align 8, !tbaa !193
  %46 = load ptr, ptr %7, align 8, !tbaa !50
  %47 = call i32 %42(ptr noundef %45, ptr noundef %46)
  store i32 %47, ptr %11, align 4, !tbaa !14
  %48 = load i32, ptr %11, align 4, !tbaa !14
  %49 = icmp ne i32 %48, 0
  br i1 %49, label %50, label %52

50:                                               ; preds = %41
  %51 = load i32, ptr %11, align 4, !tbaa !14
  store i32 %51, ptr %4, align 4
  store i32 1, ptr %10, align 4
  br label %53

52:                                               ; preds = %41
  store i32 0, ptr %10, align 4
  br label %53

53:                                               ; preds = %52, %50
  call void @llvm.lifetime.end.p0(i64 4, ptr %11) #7
  %54 = load i32, ptr %10, align 4
  switch i32 %54, label %59 [
    i32 0, label %55
  ]

55:                                               ; preds = %53
  br label %56

56:                                               ; preds = %55, %36
  br label %57

57:                                               ; preds = %56
  br label %58

58:                                               ; preds = %57
  store i32 0, ptr %4, align 4
  store i32 1, ptr %10, align 4
  br label %59

59:                                               ; preds = %58, %53, %30
  call void @llvm.lifetime.end.p0(i64 8, ptr %8) #7
  %60 = load i32, ptr %4, align 4
  ret i32 %60
}